; Function Attrs: mustprogress uwtable
define void @_ZN10open_spiel18UniformStatePolicyERKNS_5StateE(ptr dead_on_unwind noalias nocapture writable sret(%"class.std::vector") align 8 %0, ptr noundef nonnull align 8 dereferenceable(60) %1) local_unnamed_addr #3 personality ptr @__gxx_personality_v0 {
  %3 = alloca %"class.std::vector.1", align 8
  %4 = load ptr, ptr %1, align 8
  %5 = getelementptr inbounds i8, ptr %4, i64 48
  %6 = load ptr, ptr %5, align 8
  call void %6(ptr dead_on_unwind nonnull writable sret(%"class.std::vector.1") align 8 %3, ptr noundef nonnull align 8 dereferenceable(60) %1)
  invoke void @_ZN10open_spiel18UniformStatePolicyERKSt6vectorIlSaIlEE(ptr dead_on_unwind writable sret(%"class.std::vector") align 8 %0, ptr noundef nonnull align 8 dereferenceable(24) %3)
          to label %7 unwind label %15

7:                                                ; preds = %2
  %8 = load ptr, ptr %3, align 8
  %.not.i.i.i = icmp eq ptr %8, null
  br i1 %.not.i.i.i, label %_ZNSt6vectorIlSaIlEED2Ev.exit, label %9

9:                                                ; preds = %7
  %10 = getelementptr inbounds nuw i8, ptr %3, i64 16
  %11 = load ptr, ptr %10, align 8
  %12 = ptrtoint ptr %11 to i64
  %13 = ptrtoint ptr %8 to i64
  %14 = sub i64 %12, %13
  call void @_ZdlPvm(ptr noundef nonnull %8, i64 noundef %14) #25
  br label %_ZNSt6vectorIlSaIlEED2Ev.exit

_ZNSt6vectorIlSaIlEED2Ev.exit:                    ; preds = %7, %9
  ret void

15:                                               ; preds = %2
  %16 = landingpad { ptr, i32 }
          cleanup
  %17 = load ptr, ptr %3, align 8
  %.not.i.i.i2 = icmp eq ptr %17, null
  br i1 %.not.i.i.i2, label %_ZNSt6vectorIlSaIlEED2Ev.exit3, label %18

18:                                               ; preds = %15
  %19 = getelementptr inbounds nuw i8, ptr %3, i64 16
  %20 = load ptr, ptr %19, align 8
  %21 = ptrtoint ptr %20 to i64
  %22 = ptrtoint ptr %17 to i64
  %23 = sub i64 %21, %22
  call void @_ZdlPvm(ptr noundef nonnull %17, i64 noundef %23) #25
  br label %_ZNSt6vectorIlSaIlEED2Ev.exit3

_ZNSt6vectorIlSaIlEED2Ev.exit3:                   ; preds = %15, %18
  resume { ptr, i32 } %16
}